; Function Attrs: mustprogress nofree norecurse nosync nounwind memory(readwrite, inaccessiblemem: none) uwtable
define hidden noundef zeroext i1 @_ZN14PhaseIdealLoop16at_relevant_ctrlEP4NodePKS0_S3_(ptr nocapture noundef nonnull readonly align 8 dereferenceable(237) %0, ptr noundef readonly %1, ptr noundef readnone %2, ptr noundef readnone %3) local_unnamed_addr #2 align 2 {
  %5 = getelementptr inbounds i8, ptr %1, i64 40
  %6 = load i32, ptr %5, align 8
  %7 = getelementptr inbounds i8, ptr %0, i64 32
  %8 = load i32, ptr %7, align 8
  %9 = icmp ugt i32 %8, %6
  br i1 %9, label %_ZNK14PhaseIdealLoop8has_ctrlEPK4Node.exit.i, label %_ZN14PhaseIdealLoop12ctrl_or_selfEP4Node.exit

_ZNK14PhaseIdealLoop8has_ctrlEPK4Node.exit.i:     ; preds = %4
  %10 = getelementptr inbounds i8, ptr %0, i64 40
  %11 = load ptr, ptr %10, align 8
  %12 = zext i32 %6 to i64
  %13 = getelementptr inbounds ptr, ptr %11, i64 %12
  %14 = load ptr, ptr %13, align 8
  %15 = ptrtoint ptr %14 to i64
  %16 = and i64 %15, 1
  %.not.i = icmp eq i64 %16, 0
  br i1 %.not.i, label %_ZN14PhaseIdealLoop12ctrl_or_selfEP4Node.exit, label %_ZNK14PhaseIdealLoop25get_ctrl_no_update_helperEPK4Node.exit.i.i.i

_ZNK14PhaseIdealLoop25get_ctrl_no_update_helperEPK4Node.exit.i.i.i: ; preds = %_ZNK14PhaseIdealLoop8has_ctrlEPK4Node.exit.i
  %17 = and i64 %15, -2
  %18 = inttoptr i64 %17 to ptr
  %19 = getelementptr inbounds i8, ptr %18, i64 8
  %20 = load ptr, ptr %19, align 8
  %21 = load ptr, ptr %20, align 8
  %.not.i.i.i = icmp eq ptr %21, null
  br i1 %.not.i.i.i, label %.preheader.i.i.i, label %_ZN14PhaseIdealLoop8get_ctrlEPK4Node.exit.i

.preheader.i.i.i:                                 ; preds = %_ZNK14PhaseIdealLoop25get_ctrl_no_update_helperEPK4Node.exit.i.i.i, %_ZNK14PhaseIdealLoop25get_ctrl_no_update_helperEPK4Node.exit8.i.i.i
  %.0.i.i.i = phi ptr [ %32, %_ZNK14PhaseIdealLoop25get_ctrl_no_update_helperEPK4Node.exit8.i.i.i ], [ %18, %_ZNK14PhaseIdealLoop25get_ctrl_no_update_helperEPK4Node.exit.i.i.i ]
  %22 = getelementptr inbounds i8, ptr %.0.i.i.i, i64 40
  %23 = load i32, ptr %22, align 8
  %24 = icmp ugt i32 %8, %23
  br i1 %24, label %25, label %_ZNK14PhaseIdealLoop25get_ctrl_no_update_helperEPK4Node.exit8.i.i.i

25:                                               ; preds = %.preheader.i.i.i
  %26 = zext i32 %23 to i64
  %27 = getelementptr inbounds ptr, ptr %11, i64 %26
  %28 = load ptr, ptr %27, align 8
  %29 = ptrtoint ptr %28 to i64
  %30 = and i64 %29, -2
  %31 = inttoptr i64 %30 to ptr
  br label %_ZNK14PhaseIdealLoop25get_ctrl_no_update_helperEPK4Node.exit8.i.i.i

_ZNK14PhaseIdealLoop25get_ctrl_no_update_helperEPK4Node.exit8.i.i.i: ; preds = %25, %.preheader.i.i.i
  %32 = phi ptr [ %31, %25 ], [ null, %.preheader.i.i.i ]
  %33 = getelementptr inbounds i8, ptr %32, i64 8
  %34 = load ptr, ptr %33, align 8
  %35 = load ptr, ptr %34, align 8
  %.not7.i.i.i = icmp eq ptr %35, null
  br i1 %.not7.i.i.i, label %.preheader.i.i.i, label %_ZNK14PhaseIdealLoop18get_ctrl_no_updateEPK4Node.exit.i.i, !llvm.loop !8

_ZNK14PhaseIdealLoop18get_ctrl_no_updateEPK4Node.exit.i.i: ; preds = %_ZNK14PhaseIdealLoop25get_ctrl_no_update_helperEPK4Node.exit8.i.i.i
  %36 = getelementptr inbounds i8, ptr %32, i64 44
  %37 = load i32, ptr %36, align 4
  %38 = and i32 %37, 7
  %39 = icmp eq i32 %38, 5
  %spec.select.i.i.i = select i1 %39, ptr %35, ptr %32
  br label %_ZN14PhaseIdealLoop8get_ctrlEPK4Node.exit.i

_ZN14PhaseIdealLoop8get_ctrlEPK4Node.exit.i:      ; preds = %_ZNK14PhaseIdealLoop18get_ctrl_no_updateEPK4Node.exit.i.i, %_ZNK14PhaseIdealLoop25get_ctrl_no_update_helperEPK4Node.exit.i.i.i
  %.1.i.i6.i = phi ptr [ %spec.select.i.i.i, %_ZNK14PhaseIdealLoop18get_ctrl_no_updateEPK4Node.exit.i.i ], [ %18, %_ZNK14PhaseIdealLoop25get_ctrl_no_update_helperEPK4Node.exit.i.i.i ]
  %40 = ptrtoint ptr %.1.i.i6.i to i64
  %41 = add nsw i64 %40, 1
  %42 = inttoptr i64 %41 to ptr
  store ptr %42, ptr %13, align 8
  br label %_ZN14PhaseIdealLoop12ctrl_or_selfEP4Node.exit

_ZN14PhaseIdealLoop12ctrl_or_selfEP4Node.exit:    ; preds = %4, %_ZNK14PhaseIdealLoop8has_ctrlEPK4Node.exit.i, %_ZN14PhaseIdealLoop8get_ctrlEPK4Node.exit.i
  %.0.i = phi ptr [ %.1.i.i6.i, %_ZN14PhaseIdealLoop8get_ctrlEPK4Node.exit.i ], [ %1, %_ZNK14PhaseIdealLoop8has_ctrlEPK4Node.exit.i ], [ %1, %4 ]
  %43 = icmp eq ptr %.0.i, %2
  br i1 %43, label %82, label %44

44:                                               ; preds = %_ZN14PhaseIdealLoop12ctrl_or_selfEP4Node.exit
  %45 = load i32, ptr %5, align 8
  %46 = load i32, ptr %7, align 8
  %47 = icmp ugt i32 %46, %45
  br i1 %47, label %_ZNK14PhaseIdealLoop8has_ctrlEPK4Node.exit.i6, label %_ZN14PhaseIdealLoop12ctrl_or_selfEP4Node.exit18

_ZNK14PhaseIdealLoop8has_ctrlEPK4Node.exit.i6:    ; preds = %44
  %48 = getelementptr inbounds i8, ptr %0, i64 40
  %49 = load ptr, ptr %48, align 8
  %50 = zext i32 %45 to i64
  %51 = getelementptr inbounds ptr, ptr %49, i64 %50
  %52 = load ptr, ptr %51, align 8
  %53 = ptrtoint ptr %52 to i64
  %54 = and i64 %53, 1
  %.not.i7 = icmp eq i64 %54, 0
  br i1 %.not.i7, label %_ZN14PhaseIdealLoop12ctrl_or_selfEP4Node.exit18, label %_ZNK14PhaseIdealLoop25get_ctrl_no_update_helperEPK4Node.exit.i.i.i8

_ZNK14PhaseIdealLoop25get_ctrl_no_update_helperEPK4Node.exit.i.i.i8: ; preds = %_ZNK14PhaseIdealLoop8has_ctrlEPK4Node.exit.i6
  %55 = and i64 %53, -2
  %56 = inttoptr i64 %55 to ptr
  %57 = getelementptr inbounds i8, ptr %56, i64 8
  %58 = load ptr, ptr %57, align 8
  %59 = load ptr, ptr %58, align 8
  %.not.i.i.i9 = icmp eq ptr %59, null
  br i1 %.not.i.i.i9, label %.preheader.i.i.i12, label %_ZN14PhaseIdealLoop8get_ctrlEPK4Node.exit.i10

.preheader.i.i.i12:                               ; preds = %_ZNK14PhaseIdealLoop25get_ctrl_no_update_helperEPK4Node.exit.i.i.i8, %_ZNK14PhaseIdealLoop25get_ctrl_no_update_helperEPK4Node.exit8.i.i.i14
  %.0.i.i.i13 = phi ptr [ %70, %_ZNK14PhaseIdealLoop25get_ctrl_no_update_helperEPK4Node.exit8.i.i.i14 ], [ %56, %_ZNK14PhaseIdealLoop25get_ctrl_no_update_helperEPK4Node.exit.i.i.i8 ]
  %60 = getelementptr inbounds i8, ptr %.0.i.i.i13, i64 40
  %61 = load i32, ptr %60, align 8
  %62 = icmp ugt i32 %46, %61
  br i1 %62, label %63, label %_ZNK14PhaseIdealLoop25get_ctrl_no_update_helperEPK4Node.exit8.i.i.i14

63:                                               ; preds = %.preheader.i.i.i12
  %64 = zext i32 %61 to i64
  %65 = getelementptr inbounds ptr, ptr %49, i64 %64
  %66 = load ptr, ptr %65, align 8
  %67 = ptrtoint ptr %66 to i64
  %68 = and i64 %67, -2
  %69 = inttoptr i64 %68 to ptr
  br label %_ZNK14PhaseIdealLoop25get_ctrl_no_update_helperEPK4Node.exit8.i.i.i14

_ZNK14PhaseIdealLoop25get_ctrl_no_update_helperEPK4Node.exit8.i.i.i14: ; preds = %63, %.preheader.i.i.i12
  %70 = phi ptr [ %69, %63 ], [ null, %.preheader.i.i.i12 ]
  %71 = getelementptr inbounds i8, ptr %70, i64 8
  %72 = load ptr, ptr %71, align 8
  %73 = load ptr, ptr %72, align 8
  %.not7.i.i.i15 = icmp eq ptr %73, null
  br i1 %.not7.i.i.i15, label %.preheader.i.i.i12, label %_ZNK14PhaseIdealLoop18get_ctrl_no_updateEPK4Node.exit.i.i16, !llvm.loop !8

_ZNK14PhaseIdealLoop18get_ctrl_no_updateEPK4Node.exit.i.i16: ; preds = %_ZNK14PhaseIdealLoop25get_ctrl_no_update_helperEPK4Node.exit8.i.i.i14
  %74 = getelementptr inbounds i8, ptr %70, i64 44
  %75 = load i32, ptr %74, align 4
  %76 = and i32 %75, 7
  %77 = icmp eq i32 %76, 5
  %spec.select.i.i.i17 = select i1 %77, ptr %73, ptr %70
  br label %_ZN14PhaseIdealLoop8get_ctrlEPK4Node.exit.i10

_ZN14PhaseIdealLoop8get_ctrlEPK4Node.exit.i10:    ; preds = %_ZNK14PhaseIdealLoop18get_ctrl_no_updateEPK4Node.exit.i.i16, %_ZNK14PhaseIdealLoop25get_ctrl_no_update_helperEPK4Node.exit.i.i.i8
  %.1.i.i6.i11 = phi ptr [ %spec.select.i.i.i17, %_ZNK14PhaseIdealLoop18get_ctrl_no_updateEPK4Node.exit.i.i16 ], [ %56, %_ZNK14PhaseIdealLoop25get_ctrl_no_update_helperEPK4Node.exit.i.i.i8 ]
  %78 = ptrtoint ptr %.1.i.i6.i11 to i64
  %79 = add nsw i64 %78, 1
  %80 = inttoptr i64 %79 to ptr
  store ptr %80, ptr %51, align 8
  br label %_ZN14PhaseIdealLoop12ctrl_or_selfEP4Node.exit18

_ZN14PhaseIdealLoop12ctrl_or_selfEP4Node.exit18:  ; preds = %44, %_ZNK14PhaseIdealLoop8has_ctrlEPK4Node.exit.i6, %_ZN14PhaseIdealLoop8get_ctrlEPK4Node.exit.i10
  %.0.i5 = phi ptr [ %.1.i.i6.i11, %_ZN14PhaseIdealLoop8get_ctrlEPK4Node.exit.i10 ], [ %1, %_ZNK14PhaseIdealLoop8has_ctrlEPK4Node.exit.i6 ], [ %1, %44 ]
  %81 = icmp eq ptr %.0.i5, %3
  br label %82

82:                                               ; preds = %_ZN14PhaseIdealLoop12ctrl_or_selfEP4Node.exit18, %_ZN14PhaseIdealLoop12ctrl_or_selfEP4Node.exit
  %83 = phi i1 [ true, %_ZN14PhaseIdealLoop12ctrl_or_selfEP4Node.exit ], [ %81, %_ZN14PhaseIdealLoop12ctrl_or_selfEP4Node.exit18 ]
  ret i1 %83
}